target datalayout = "e-m:e-p270:32:32-p271:32:32-p272:64:64-i64:64-i128:128-f80:128-n8:16:32:64-S128"
target triple = "x86_64-pc-linux-gnu"

; Function Attrs: inlinehint nounwind uwtable
define internal i32 @Abc_TtWordNum(i32 noundef %0) #2 {
  %2 = alloca i32, align 4
  store i32 %0, ptr %2, align 4, !tbaa !8
  %3 = load i32, ptr %2, align 4, !tbaa !8
  %4 = icmp sle i32 %3, 6
  br i1 %4, label %5, label %6

5:                                                ; preds = %1
  br label %10

6:                                                ; preds = %1
  %7 = load i32, ptr %2, align 4, !tbaa !8
  %8 = sub nsw i32 %7, 6
  %9 = shl i32 1, %8
  br label %10

10:                                               ; preds = %6, %5
  %11 = phi i32 [ 1, %5 ], [ %9, %6 ]
  ret i32 %11
}

; Function Attrs: inlinehint nounwind uwtable
define internal i32 @Abc_TtByteNum(i32 noundef %0) #2 {
  %2 = alloca i32, align 4
  store i32 %0, ptr %2, align 4, !tbaa !8
  %3 = load i32, ptr %2, align 4, !tbaa !8
  %4 = icmp sle i32 %3, 3
  br i1 %4, label %5, label %6

5:                                                ; preds = %1
  br label %10

6:                                                ; preds = %1
  %7 = load i32, ptr %2, align 4, !tbaa !8
  %8 = sub nsw i32 %7, 3
  %9 = shl i32 1, %8
  br label %10

10:                                               ; preds = %6, %5
  %11 = phi i32 [ 1, %5 ], [ %9, %6 ]
  ret i32 %11
}

; Function Attrs: nounwind uwtable
define i32 @Abc_TtCountOnesInCofsFast(ptr noundef %0, i32 noundef %1, ptr noundef %2) #0 {
  %4 = alloca i32, align 4
  %5 = alloca ptr, align 8
  %6 = alloca i32, align 4
  %7 = alloca ptr, align 8
  store ptr %0, ptr %5, align 8, !tbaa !3
  store i32 %1, ptr %6, align 4, !tbaa !8
  store ptr %2, ptr %7, align 8, !tbaa !14
  %8 = load ptr, ptr %7, align 8, !tbaa !14
  %9 = load i32, ptr %6, align 4, !tbaa !8
  %10 = sext i32 %9 to i64
  %11 = mul i64 4, %10
  call void @llvm.memset.p0.i64(ptr align 4 %8, i8 0, i64 %11, i1 false)
  %12 = load i32, ptr %6, align 4, !tbaa !8
  %13 = icmp sle i32 %12, 6
  br i1 %13, label %14, label %24

14:                                               ; preds = %3
  %15 = load ptr, ptr %5, align 8, !tbaa !3
  %16 = getelementptr inbounds i64, ptr %15, i64 0
  %17 = load i64, ptr %16, align 8, !tbaa !10
  %18 = load i32, ptr %6, align 4, !tbaa !8
  %19 = sub nsw i32 %18, 1
  %20 = load i32, ptr %6, align 4, !tbaa !8
  %21 = call i32 @Abc_TtByteNum(i32 noundef %20)
  %22 = load ptr, ptr %7, align 8, !tbaa !14
  %23 = call i32 @Abc_TtCountOnesInCofsFast6_rec(i64 noundef %17, i32 noundef %19, i32 noundef %21, ptr noundef %22)
  store i32 %23, ptr %4, align 4
  br label %32

24:                                               ; preds = %3
  %25 = load ptr, ptr %5, align 8, !tbaa !3
  %26 = load i32, ptr %6, align 4, !tbaa !8
  %27 = sub nsw i32 %26, 1
  %28 = load i32, ptr %6, align 4, !tbaa !8
  %29 = call i32 @Abc_TtWordNum(i32 noundef %28)
  %30 = load ptr, ptr %7, align 8, !tbaa !14
  %31 = call i32 @Abc_TtCountOnesInCofsFast_rec(ptr noundef %25, i32 noundef %27, i32 noundef %29, ptr noundef %30)
  store i32 %31, ptr %4, align 4
  br label %32

32:                                               ; preds = %24, %14
  %33 = load i32, ptr %4, align 4
  ret i32 %33
}