; Function Attrs: nofree nosync nounwind memory(argmem: readwrite) uwtable
define i32 @Abc_TtCountOnesInCofsFast(ptr noundef %0, i32 noundef %1, ptr noundef %2) local_unnamed_addr #3 {
  %4 = sext i32 %1 to i64
  %5 = shl nsw i64 %4, 2
  tail call void @llvm.memset.p0.i64(ptr align 4 %2, i8 0, i64 %5, i1 false)
  %6 = icmp slt i32 %1, 7
  br i1 %6, label %7, label %15

7:                                                ; preds = %3
  %8 = load i64, ptr %0, align 8, !tbaa !3
  %9 = add nsw i32 %1, -1
  %10 = icmp slt i32 %1, 4
  %11 = add nsw i32 %1, -3
  %12 = shl nuw nsw i32 1, %11
  %13 = select i1 %10, i32 1, i32 %12
  %14 = tail call i32 @Abc_TtCountOnesInCofsFast6_rec(i64 noundef %8, i32 noundef %9, i32 noundef %13, ptr noundef %2)
  br label %20

15:                                               ; preds = %3
  %16 = add nsw i32 %1, -1
  %17 = add nsw i32 %1, -6
  %18 = shl nuw i32 1, %17
  %19 = tail call i32 @Abc_TtCountOnesInCofsFast_rec(ptr noundef %0, i32 noundef %16, i32 noundef %18, ptr noundef %2)
  br label %20

20:                                               ; preds = %15, %7
  %.0 = phi i32 [ %14, %7 ], [ %19, %15 ]
  ret i32 %.0
}